target datalayout = "e-m:e-p270:32:32-p271:32:32-p272:64:64-i64:64-i128:128-f80:128-n8:16:32:64-S128"
target triple = "x86_64-pc-linux-gnu"

%struct.AVRational = type { i32, i32 }
%struct.MOVAtom = type { i32, i64 }
%struct.MOVContext = type { ptr, ptr, i32, i64, i32, i32, i32, i32, i32, i32, ptr, i32, ptr, ptr, i32, %struct.MOVFragment, ptr, i32, i32, i32, ptr, i32, i32, i32, i32, i32, i32, i32, i64, i32, i32, ptr, i32, i32, i32, i32, i32, %struct.MOVFragmentIndex, i32, i32, [20 x i8], [20 x i8], ptr, i32, ptr, i32, ptr, i32, ptr, i32, ptr, ptr, i32, i32, [3 x [3 x i32]], i32, i32, i32, i32, i32, ptr, i32, ptr, i32, i32, i64, i32 }
%struct.MOVFragment = type { i32, i32, i64, i64, i64, i32, i32, i32, i32 }
%struct.MOVFragmentIndex = type { i32, i32, i32, i32, ptr }
%struct.AVFormatContext = type { ptr, ptr, ptr, ptr, ptr, i32, i32, ptr, i32, ptr, i32, ptr, ptr, i64, i64, i64, i32, i32, i32, i64, i64, ptr, i32, i32, ptr, i32, i32, i32, i32, ptr, i64, i32, i32, %struct.AVIOInterruptCB, i32, i32, i32, i32, i64, i32, i32, i32, i32, i32, i32, i32, i32, i32, i32, i32, i32, i64, i32, i32, i32, i32, i32, ptr, ptr, ptr, ptr, i32, ptr, ptr, ptr, ptr, i32, ptr, ptr, i64, ptr, ptr, ptr, i64 }
%struct.AVIOInterruptCB = type { ptr, ptr }
%struct.AVStream = type { ptr, i32, i32, ptr, ptr, %struct.AVRational, i64, i64, i64, i32, i32, %struct.AVRational, ptr, %struct.AVRational, %struct.AVPacket, i32, %struct.AVRational, i32 }
%struct.AVPacket = type { ptr, i64, i64, ptr, i32, i32, i32, ptr, i32, i64, i64, ptr, ptr, %struct.AVRational }
%struct.AVCodecParameters = type { i32, i32, i32, ptr, i32, ptr, i32, i32, i64, i32, i32, i32, i32, i32, i32, %struct.AVRational, %struct.AVRational, i32, i32, i32, i32, i32, i32, i32, %struct.AVChannelLayout, i32, i32, i32, i32, i32, i32 }
%struct.AVChannelLayout = type { i32, i32, %union.anon, ptr }
%union.anon = type { i64 }
%struct.AVPacketSideData = type { ptr, i64, i32 }

@ff_ac3_channel_layout_tab = external constant [8 x i16], align 16

; Function Attrs: nounwind uwtable
define internal i32 @mov_read_dac3(ptr noundef %0, ptr noundef %1, i32 %2, i64 %3) #0 {
  %5 = alloca i32, align 4
  %6 = alloca %struct.MOVAtom, align 8
  %7 = alloca ptr, align 8
  %8 = alloca ptr, align 8
  %9 = alloca ptr, align 8
  %10 = alloca ptr, align 8
  %11 = alloca ptr, align 8
  %12 = alloca i32, align 4
  %13 = alloca i32, align 4
  %14 = alloca i32, align 4
  %15 = alloca i32, align 4
  %16 = alloca i64, align 8
  %17 = alloca i32, align 4
  %18 = getelementptr inbounds nuw { i32, i64 }, ptr %6, i32 0, i32 0
  store i32 %2, ptr %18, align 8
  %19 = getelementptr inbounds nuw { i32, i64 }, ptr %6, i32 0, i32 1
  store i64 %3, ptr %19, align 8
  store ptr %0, ptr %7, align 8, !tbaa !4
  store ptr %1, ptr %8, align 8, !tbaa !9
  call void @llvm.lifetime.start.p0(i64 8, ptr %9) #14
  call void @llvm.lifetime.start.p0(i64 8, ptr %10) #14
  call void @llvm.lifetime.start.p0(i64 8, ptr %11) #14
  call void @llvm.lifetime.start.p0(i64 4, ptr %12) #14
  call void @llvm.lifetime.start.p0(i64 4, ptr %13) #14
  call void @llvm.lifetime.start.p0(i64 4, ptr %14) #14
  call void @llvm.lifetime.start.p0(i64 4, ptr %15) #14
  call void @llvm.lifetime.start.p0(i64 8, ptr %16) #14
  %20 = load ptr, ptr %7, align 8, !tbaa !4
  %21 = getelementptr inbounds nuw %struct.MOVContext, ptr %20, i32 0, i32 1
  %22 = load ptr, ptr %21, align 8, !tbaa !13
  %23 = getelementptr inbounds nuw %struct.AVFormatContext, ptr %22, i32 0, i32 6
  %24 = load i32, ptr %23, align 4, !tbaa !30
  %25 = icmp ult i32 %24, 1
  br i1 %25, label %26, label %27

26:                                               ; preds = %4
  store i32 0, ptr %5, align 4
  store i32 1, ptr %17, align 4
  br label %105

27:                                               ; preds = %4
  %28 = load ptr, ptr %7, align 8, !tbaa !4
  %29 = getelementptr inbounds nuw %struct.MOVContext, ptr %28, i32 0, i32 1
  %30 = load ptr, ptr %29, align 8, !tbaa !13
  %31 = getelementptr inbounds nuw %struct.AVFormatContext, ptr %30, i32 0, i32 7
  %32 = load ptr, ptr %31, align 8, !tbaa !41
  %33 = load ptr, ptr %7, align 8, !tbaa !4
  %34 = getelementptr inbounds nuw %struct.MOVContext, ptr %33, i32 0, i32 1
  %35 = load ptr, ptr %34, align 8, !tbaa !13
  %36 = getelementptr inbounds nuw %struct.AVFormatContext, ptr %35, i32 0, i32 6
  %37 = load i32, ptr %36, align 4, !tbaa !30
  %38 = sub i32 %37, 1
  %39 = zext i32 %38 to i64
  %40 = getelementptr inbounds nuw ptr, ptr %32, i64 %39
  %41 = load ptr, ptr %40, align 8, !tbaa !42
  store ptr %41, ptr %9, align 8, !tbaa !42
  %42 = load ptr, ptr %9, align 8, !tbaa !42
  %43 = getelementptr inbounds nuw %struct.AVStream, ptr %42, i32 0, i32 3
  %44 = load ptr, ptr %43, align 8, !tbaa !60
  %45 = getelementptr inbounds nuw %struct.AVCodecParameters, ptr %44, i32 0, i32 5
  %46 = load ptr, ptr %9, align 8, !tbaa !42
  %47 = getelementptr inbounds nuw %struct.AVStream, ptr %46, i32 0, i32 3
  %48 = load ptr, ptr %47, align 8, !tbaa !60
  %49 = getelementptr inbounds nuw %struct.AVCodecParameters, ptr %48, i32 0, i32 6
  %50 = call ptr @av_packet_side_data_new(ptr noundef %45, ptr noundef %49, i32 noundef 7, i64 noundef 4, i32 noundef 0)
  store ptr %50, ptr %10, align 8, !tbaa !294
  %51 = load ptr, ptr %10, align 8, !tbaa !294
  %52 = icmp ne ptr %51, null
  br i1 %52, label %54, label %53

53:                                               ; preds = %27
  store i32 -12, ptr %5, align 4
  store i32 1, ptr %17, align 4
  br label %105

54:                                               ; preds = %27
  %55 = load ptr, ptr %10, align 8, !tbaa !294
  %56 = getelementptr inbounds nuw %struct.AVPacketSideData, ptr %55, i32 0, i32 0
  %57 = load ptr, ptr %56, align 8, !tbaa !295
  store ptr %57, ptr %11, align 8, !tbaa !137
  %58 = load ptr, ptr %8, align 8, !tbaa !9
  %59 = call i32 @avio_rb24(ptr noundef %58)
  store i32 %59, ptr %12, align 4, !tbaa !11
  %60 = load i32, ptr %12, align 4, !tbaa !11
  %61 = ashr i32 %60, 14
  %62 = and i32 %61, 7
  store i32 %62, ptr %15, align 4, !tbaa !11
  %63 = load i32, ptr %12, align 4, !tbaa !11
  %64 = ashr i32 %63, 11
  %65 = and i32 %64, 7
  store i32 %65, ptr %13, align 4, !tbaa !11
  %66 = load i32, ptr %12, align 4, !tbaa !11
  %67 = ashr i32 %66, 10
  %68 = and i32 %67, 1
  store i32 %68, ptr %14, align 4, !tbaa !11
  %69 = load i32, ptr %13, align 4, !tbaa !11
  %70 = sext i32 %69 to i64
  %71 = getelementptr inbounds [8 x i16], ptr @ff_ac3_channel_layout_tab, i64 0, i64 %70
  %72 = load i16, ptr %71, align 2, !tbaa !105
  %73 = zext i16 %72 to i64
  store i64 %73, ptr %16, align 8, !tbaa !59
  %74 = load i32, ptr %14, align 4, !tbaa !11
  %75 = icmp ne i32 %74, 0
  br i1 %75, label %76, label %79

76:                                               ; preds = %54
  %77 = load i64, ptr %16, align 8, !tbaa !59
  %78 = or i64 %77, 8
  store i64 %78, ptr %16, align 8, !tbaa !59
  br label %79

79:                                               ; preds = %76, %54
  %80 = load ptr, ptr %9, align 8, !tbaa !42
  %81 = getelementptr inbounds nuw %struct.AVStream, ptr %80, i32 0, i32 3
  %82 = load ptr, ptr %81, align 8, !tbaa !60
  %83 = getelementptr inbounds nuw %struct.AVCodecParameters, ptr %82, i32 0, i32 24
  call void @av_channel_layout_uninit(ptr noundef %83)
  %84 = load ptr, ptr %9, align 8, !tbaa !42
  %85 = getelementptr inbounds nuw %struct.AVStream, ptr %84, i32 0, i32 3
  %86 = load ptr, ptr %85, align 8, !tbaa !60
  %87 = getelementptr inbounds nuw %struct.AVCodecParameters, ptr %86, i32 0, i32 24
  %88 = load i64, ptr %16, align 8, !tbaa !59
  %89 = call i32 @av_channel_layout_from_mask(ptr noundef %87, i64 noundef %88)
  %90 = load i32, ptr %15, align 4, !tbaa !11
  %91 = load ptr, ptr %11, align 8, !tbaa !137
  store i32 %90, ptr %91, align 4, !tbaa !11
  %92 = load ptr, ptr %9, align 8, !tbaa !42
  %93 = getelementptr inbounds nuw %struct.AVStream, ptr %92, i32 0, i32 3
  %94 = load ptr, ptr %93, align 8, !tbaa !60
  %95 = getelementptr inbounds nuw %struct.AVCodecParameters, ptr %94, i32 0, i32 24
  %96 = getelementptr inbounds nuw %struct.AVChannelLayout, ptr %95, i32 0, i32 1
  %97 = load i32, ptr %96, align 4, !tbaa !92
  %98 = icmp sgt i32 %97, 1
  br i1 %98, label %99, label %104

99:                                               ; preds = %79
  %100 = load i32, ptr %15, align 4, !tbaa !11
  %101 = icmp eq i32 %100, 7
  br i1 %101, label %102, label %104

102:                                              ; preds = %99
  %103 = load ptr, ptr %11, align 8, !tbaa !137
  store i32 8, ptr %103, align 4, !tbaa !11
  br label %104

104:                                              ; preds = %102, %99, %79
  store i32 0, ptr %5, align 4
  store i32 1, ptr %17, align 4
  br label %105

105:                                              ; preds = %104, %53, %26
  call void @llvm.lifetime.end.p0(i64 8, ptr %16) #14
  call void @llvm.lifetime.end.p0(i64 4, ptr %15) #14
  call void @llvm.lifetime.end.p0(i64 4, ptr %14) #14
  call void @llvm.lifetime.end.p0(i64 4, ptr %13) #14
  call void @llvm.lifetime.end.p0(i64 4, ptr %12) #14
  call void @llvm.lifetime.end.p0(i64 8, ptr %11) #14
  call void @llvm.lifetime.end.p0(i64 8, ptr %10) #14
  call void @llvm.lifetime.end.p0(i64 8, ptr %9) #14
  %106 = load i32, ptr %5, align 4
  ret i32 %106
}