; Function Attrs: nounwind uwtable
define internal range(i32 -12, 1) i32 @mov_read_dac3(ptr noundef readonly captures(none) %0, ptr noundef %1, i32 %2, i64 %3) #0 {
  %5 = getelementptr inbounds nuw i8, ptr %0, i64 8
  %6 = load ptr, ptr %5, align 8, !tbaa !4
  %7 = getelementptr inbounds nuw i8, ptr %6, i64 44
  %8 = load i32, ptr %7, align 4, !tbaa !25
  %9 = icmp eq i32 %8, 0
  br i1 %9, label %45, label %10

10:                                               ; preds = %4
  %11 = getelementptr inbounds nuw i8, ptr %6, i64 48
  %12 = load ptr, ptr %11, align 8, !tbaa !37
  %13 = add i32 %8, -1
  %14 = zext i32 %13 to i64
  %15 = getelementptr inbounds nuw ptr, ptr %12, i64 %14
  %16 = load ptr, ptr %15, align 8, !tbaa !38
  %17 = getelementptr inbounds nuw i8, ptr %16, i64 16
  %18 = load ptr, ptr %17, align 8, !tbaa !49
  %19 = getelementptr inbounds nuw i8, ptr %18, i64 32
  %20 = getelementptr inbounds nuw i8, ptr %18, i64 40
  %21 = tail call ptr @av_packet_side_data_new(ptr noundef nonnull %19, ptr noundef nonnull %20, i32 noundef 7, i64 noundef 4, i32 noundef 0) #16
  %.not = icmp eq ptr %21, null
  br i1 %.not, label %45, label %22

22:                                               ; preds = %10
  %23 = load ptr, ptr %21, align 8, !tbaa !181
  %24 = tail call i32 @avio_rb24(ptr noundef %1) #16
  %25 = lshr i32 %24, 14
  %26 = and i32 %25, 7
  %27 = lshr i32 %24, 11
  %28 = and i32 %27, 7
  %29 = zext nneg i32 %28 to i64
  %30 = getelementptr inbounds nuw [8 x i16], ptr @ff_ac3_channel_layout_tab, i64 0, i64 %29
  %31 = load i16, ptr %30, align 2, !tbaa !194
  %32 = lshr i32 %24, 7
  %33 = and i32 %32, 8
  %34 = zext i16 %31 to i32
  %spec.select27 = or i32 %33, %34
  %spec.select = zext nneg i32 %spec.select27 to i64
  %35 = load ptr, ptr %17, align 8, !tbaa !49
  %36 = getelementptr inbounds nuw i8, ptr %35, i64 128
  tail call void @av_channel_layout_uninit(ptr noundef nonnull %36) #16
  %37 = load ptr, ptr %17, align 8, !tbaa !49
  %38 = getelementptr inbounds nuw i8, ptr %37, i64 128
  %39 = tail call i32 @av_channel_layout_from_mask(ptr noundef nonnull %38, i64 noundef %spec.select) #16
  store i32 %26, ptr %23, align 4, !tbaa !83
  %40 = load ptr, ptr %17, align 8, !tbaa !49
  %41 = getelementptr inbounds nuw i8, ptr %40, i64 132
  %42 = load i32, ptr %41, align 4, !tbaa !91
  %43 = icmp sgt i32 %42, 1
  %44 = icmp eq i32 %26, 7
  %or.cond = and i1 %44, %43
  %spec.store.select = select i1 %or.cond, i32 8, i32 %26
  store i32 %spec.store.select, ptr %23, align 4
  br label %45

45:                                               ; preds = %22, %10, %4
  %.023 = phi i32 [ 0, %4 ], [ -12, %10 ], [ 0, %22 ]
  ret i32 %.023
}